; Function Attrs: mustprogress nounwind uwtable
define void @_ZN3nix10AutoDeleteD2Ev(ptr noundef nonnull align 8 dereferenceable(34) %0) unnamed_addr #5 align 2 personality ptr @__gxx_personality_v0 {
  %2 = alloca i64, align 8
  %3 = getelementptr inbounds i8, ptr %0, i64 32
  %4 = load i8, ptr %3, align 8
  %5 = and i8 %4, 1
  %.not = icmp eq i8 %5, 0
  br i1 %.not, label %26, label %6

6:                                                ; preds = %1
  %7 = getelementptr inbounds i8, ptr %0, i64 33
  %8 = load i8, ptr %7, align 1
  %9 = and i8 %8, 1
  %.not2 = icmp eq i8 %9, 0
  br i1 %.not2, label %13, label %10

10:                                               ; preds = %6
  call void @llvm.lifetime.start.p0(i64 8, ptr nonnull %2)
  invoke void @_ZN3nix10deletePathERKNSt7__cxx1112basic_stringIcSt11char_traitsIcESaIcEEERm(ptr noundef nonnull align 8 dereferenceable(32) %0, ptr noundef nonnull align 8 dereferenceable(8) %2)
          to label %_ZN3nix10deletePathERKNSt7__cxx1112basic_stringIcSt11char_traitsIcESaIcEEE.exit unwind label %11

_ZN3nix10deletePathERKNSt7__cxx1112basic_stringIcSt11char_traitsIcESaIcEEE.exit: ; preds = %10
  call void @llvm.lifetime.end.p0(i64 8, ptr nonnull %2)
  br label %26

11:                                               ; preds = %10, %_ZN3nix8SysErrorC2IJA20_cNSt7__cxx1112basic_stringIcSt11char_traitsIcESaIcEEEEEEDpRKT_.exit
  %12 = landingpad { ptr, i32 }
          catch ptr null
  br label %23

13:                                               ; preds = %6
  %14 = load ptr, ptr %0, align 8
  %15 = tail call i32 @remove(ptr noundef %14) #29
  %16 = icmp eq i32 %15, -1
  br i1 %16, label %17, label %26

17:                                               ; preds = %13
  %18 = tail call ptr @__cxa_allocate_exception(i64 384) #29
  %19 = tail call ptr @__errno_location() #31
  %20 = load i32, ptr %19, align 4
  invoke void @_ZN3nix8SysErrorC2IJA20_cNSt7__cxx1112basic_stringIcSt11char_traitsIcESaIcEEEEEEiDpRKT_(ptr noundef nonnull align 8 dereferenceable(380) %18, i32 noundef %20, ptr noundef nonnull align 1 dereferenceable(20) @.str.20, ptr noundef nonnull align 8 dereferenceable(32) %0)
          to label %_ZN3nix8SysErrorC2IJA20_cNSt7__cxx1112basic_stringIcSt11char_traitsIcESaIcEEEEEEDpRKT_.exit unwind label %21

_ZN3nix8SysErrorC2IJA20_cNSt7__cxx1112basic_stringIcSt11char_traitsIcESaIcEEEEEEDpRKT_.exit: ; preds = %17
  invoke void @__cxa_throw(ptr nonnull %18, ptr nonnull @_ZTIN3nix8SysErrorE, ptr nonnull @_ZN3nix8SysErrorD2Ev) #32
          to label %36 unwind label %11

21:                                               ; preds = %17
  %22 = landingpad { ptr, i32 }
          catch ptr null
  tail call void @__cxa_free_exception(ptr %18) #29
  br label %23

23:                                               ; preds = %21, %11
  %.pn = phi { ptr, i32 } [ %12, %11 ], [ %22, %21 ]
  %.0 = extractvalue { ptr, i32 } %.pn, 0
  %24 = tail call ptr @__cxa_begin_catch(ptr %.0) #29
  invoke void @_ZN3nix15ignoreExceptionENS_9VerbosityE(i32 noundef 0)
          to label %25 unwind label %33

25:                                               ; preds = %23
  invoke void @__cxa_end_catch()
          to label %26 unwind label %33

26:                                               ; preds = %_ZN3nix10deletePathERKNSt7__cxx1112basic_stringIcSt11char_traitsIcESaIcEEE.exit, %1, %13, %25
  %27 = load ptr, ptr %0, align 8
  %28 = getelementptr inbounds i8, ptr %0, i64 16
  %29 = icmp eq ptr %27, %28
  br i1 %29, label %_ZNKSt7__cxx1112basic_stringIcSt11char_traitsIcESaIcEE11_M_is_localEv.exit.thread.i.i, label %_ZNKSt7__cxx1112basic_stringIcSt11char_traitsIcESaIcEE11_M_is_localEv.exit.i.i

_ZNKSt7__cxx1112basic_stringIcSt11char_traitsIcESaIcEE11_M_is_localEv.exit.thread.i.i: ; preds = %26
  %30 = getelementptr inbounds i8, ptr %0, i64 8
  %31 = load i64, ptr %30, align 8
  %32 = icmp ult i64 %31, 16
  tail call void @llvm.assume(i1 %32)
  br label %_ZNSt7__cxx1112basic_stringIcSt11char_traitsIcESaIcEED2Ev.exit

_ZNKSt7__cxx1112basic_stringIcSt11char_traitsIcESaIcEE11_M_is_localEv.exit.i.i: ; preds = %26
  tail call void @_ZdlPv(ptr noundef %27) #30
  br label %_ZNSt7__cxx1112basic_stringIcSt11char_traitsIcESaIcEED2Ev.exit

_ZNSt7__cxx1112basic_stringIcSt11char_traitsIcESaIcEED2Ev.exit: ; preds = %_ZNKSt7__cxx1112basic_stringIcSt11char_traitsIcESaIcEE11_M_is_localEv.exit.thread.i.i, %_ZNKSt7__cxx1112basic_stringIcSt11char_traitsIcESaIcEE11_M_is_localEv.exit.i.i
  tail call void @_ZNSaIcED2Ev(ptr noundef nonnull align 1 dereferenceable(1) %0) #29
  ret void

33:                                               ; preds = %25, %23
  %34 = landingpad { ptr, i32 }
          catch ptr null
  %35 = extractvalue { ptr, i32 } %34, 0
  tail call void @__clang_call_terminate(ptr %35) #34
  unreachable

36:                                               ; preds = %_ZN3nix8SysErrorC2IJA20_cNSt7__cxx1112basic_stringIcSt11char_traitsIcESaIcEEEEEEDpRKT_.exit
  unreachable
}